target datalayout = "e-m:e-p270:32:32-p271:32:32-p272:64:64-i64:64-i128:128-f80:128-n8:16:32:64-S128"
target triple = "x86_64-pc-linux-gnu"

@.str = private unnamed_addr constant [65 x i8] c"/sys/devices/system/clocksource/clocksource0/current_clocksource\00", align 1
@.str.1 = private unnamed_addr constant [4 x i8] c"xen\00", align 1
@.str.4 = private unnamed_addr constant [2 x i8] c"r\00", align 1
@.str.18 = private unnamed_addr constant [3 x i8] c" \0A\00", align 1

; Function Attrs: nounwind uwtable
define internal ptr @read_sysfs_line(ptr noundef %0) #0 {
  %2 = alloca ptr, align 8
  %3 = alloca ptr, align 8
  %4 = alloca [256 x i8], align 16
  %5 = alloca ptr, align 8
  %6 = alloca i32, align 4
  %7 = alloca ptr, align 8
  store ptr %0, ptr %3, align 8, !tbaa !10
  call void @llvm.lifetime.start.p0(i64 256, ptr %4) #5
  call void @llvm.lifetime.start.p0(i64 8, ptr %5) #5
  %8 = load ptr, ptr %3, align 8, !tbaa !10
  %9 = call noalias ptr @fopen64(ptr noundef %8, ptr noundef @.str.4)
  store ptr %9, ptr %5, align 8, !tbaa !14
  %10 = load ptr, ptr %5, align 8, !tbaa !14
  %11 = icmp ne ptr %10, null
  br i1 %11, label %13, label %12

12:                                               ; preds = %1
  store ptr null, ptr %2, align 8
  store i32 1, ptr %6, align 4
  br label %29

13:                                               ; preds = %1
  %14 = getelementptr inbounds [256 x i8], ptr %4, i64 0, i64 0
  %15 = load ptr, ptr %5, align 8, !tbaa !14
  %16 = call ptr @fgets(ptr noundef %14, i32 noundef 256, ptr noundef %15)
  %17 = icmp ne ptr %16, null
  br i1 %17, label %21, label %18

18:                                               ; preds = %13
  %19 = load ptr, ptr %5, align 8, !tbaa !14
  %20 = call i32 @fclose(ptr noundef %19)
  store ptr null, ptr %2, align 8
  store i32 1, ptr %6, align 4
  br label %29

21:                                               ; preds = %13
  %22 = load ptr, ptr %5, align 8, !tbaa !14
  %23 = call i32 @fclose(ptr noundef %22)
  call void @llvm.lifetime.start.p0(i64 8, ptr %7) #5
  %24 = getelementptr inbounds [256 x i8], ptr %4, i64 0, i64 0
  %25 = call ptr @sdsnew(ptr noundef %24)
  store ptr %25, ptr %7, align 8, !tbaa !10
  %26 = load ptr, ptr %7, align 8, !tbaa !10
  %27 = call ptr @sdstrim(ptr noundef %26, ptr noundef @.str.18)
  store ptr %27, ptr %7, align 8, !tbaa !10
  %28 = load ptr, ptr %7, align 8, !tbaa !10
  store ptr %28, ptr %2, align 8
  store i32 1, ptr %6, align 4
  call void @llvm.lifetime.end.p0(i64 8, ptr %7) #5
  br label %29

29:                                               ; preds = %21, %18, %12
  call void @llvm.lifetime.end.p0(i64 8, ptr %5) #5
  call void @llvm.lifetime.end.p0(i64 256, ptr %4) #5
  %30 = load ptr, ptr %2, align 8
  ret ptr %30
}

; Function Attrs: nounwind uwtable
define dso_local i32 @checkXenClocksource(ptr noundef %0) #0 {
  %2 = alloca ptr, align 8
  %3 = alloca ptr, align 8
  %4 = alloca i32, align 4
  store ptr %0, ptr %2, align 8, !tbaa !5
  call void @llvm.lifetime.start.p0(i64 8, ptr %3) #5
  %5 = call ptr @read_sysfs_line(ptr noundef @.str)
  store ptr %5, ptr %3, align 8, !tbaa !10
  call void @llvm.lifetime.start.p0(i64 4, ptr %4) #5
  store i32 1, ptr %4, align 4, !tbaa !12
  %6 = load ptr, ptr %3, align 8, !tbaa !10
  %7 = icmp eq ptr %6, null
  br i1 %7, label %8, label %9

8:                                                ; preds = %1
  store i32 0, ptr %4, align 4, !tbaa !12
  br label %17

9:                                                ; preds = %1
  %10 = load ptr, ptr %3, align 8, !tbaa !10
  %11 = call i32 @strcmp(ptr noundef %10, ptr noundef @.str.1) #6
  %12 = icmp eq i32 %11, 0
  br i1 %12, label %13, label %16

13:                                               ; preds = %9
  %14 = call ptr @sdsnew(ptr noundef @.str.2)
  %15 = load ptr, ptr %2, align 8, !tbaa !5
  store ptr %14, ptr %15, align 8, !tbaa !10
  store i32 -1, ptr %4, align 4, !tbaa !12
  br label %16

16:                                               ; preds = %13, %9
  br label %17

17:                                               ; preds = %16, %8
  %18 = load ptr, ptr %3, align 8, !tbaa !10
  call void @sdsfree(ptr noundef %18)
  %19 = load i32, ptr %4, align 4, !tbaa !12
  call void @llvm.lifetime.end.p0(i64 4, ptr %4) #5
  call void @llvm.lifetime.end.p0(i64 8, ptr %3) #5
  ret i32 %19
}