; Function Attrs: nounwind uwtable
define dso_local range(i32 -1, 2) i32 @checkXenClocksource(ptr noundef writeonly captures(none) %0) #0 {
  %2 = alloca [256 x i8], align 16
  call void @llvm.lifetime.start.p0(i64 256, ptr nonnull %2) #8
  %3 = tail call noalias ptr @fopen64(ptr noundef nonnull @.str, ptr noundef nonnull @.str.4)
  %.not.i = icmp eq ptr %3, null
  br i1 %.not.i, label %read_sysfs_line.exit.thread, label %4

4:                                                ; preds = %1
  %5 = call ptr @fgets(ptr noundef nonnull %2, i32 noundef 256, ptr noundef nonnull %3)
  %.not9.i = icmp eq ptr %5, null
  %6 = call i32 @fclose(ptr noundef nonnull %3)
  br i1 %.not9.i, label %read_sysfs_line.exit.thread, label %read_sysfs_line.exit

read_sysfs_line.exit.thread:                      ; preds = %1, %4
  call void @llvm.lifetime.end.p0(i64 256, ptr nonnull %2) #8
  br label %15

read_sysfs_line.exit:                             ; preds = %4
  %7 = call ptr @sdsnew(ptr noundef nonnull %2) #8
  %8 = call ptr @sdstrim(ptr noundef %7, ptr noundef nonnull @.str.18) #8
  call void @llvm.lifetime.end.p0(i64 256, ptr nonnull %2) #8
  %9 = icmp eq ptr %8, null
  br i1 %9, label %15, label %10

10:                                               ; preds = %read_sysfs_line.exit
  %11 = call i32 @strcmp(ptr noundef nonnull dereferenceable(1) %8, ptr noundef nonnull dereferenceable(4) @.str.1) #9
  %12 = icmp eq i32 %11, 0
  br i1 %12, label %13, label %15

13:                                               ; preds = %10
  %14 = call ptr @sdsnew(ptr noundef nonnull @.str.2) #8
  store ptr %14, ptr %0, align 8, !tbaa !5
  br label %15

15:                                               ; preds = %read_sysfs_line.exit.thread, %read_sysfs_line.exit, %10, %13
  %.0.i6 = phi ptr [ %8, %13 ], [ %8, %10 ], [ null, %read_sysfs_line.exit ], [ null, %read_sysfs_line.exit.thread ]
  %.0 = phi i32 [ -1, %13 ], [ 1, %10 ], [ 0, %read_sysfs_line.exit ], [ 0, %read_sysfs_line.exit.thread ]
  call void @sdsfree(ptr noundef %.0.i6) #8
  ret i32 %.0
}